Certificate:
    Data:
        Version: 3 (0x2)
        Serial Number: 4096 (0x1000)
        Signature Algorithm: sha256WithRSAEncryption
        Issuer: C=US, ST=New Jersey, L=Princeton, O=Princeton University, OU=PNI, CN=rtcloud.princeton.edu
        Validity
            Not Before: Jan  1 12:00:00 2023 GMT
            Not After : Jan  1 12:00:00 2024 GMT
        Subject: C=US, ST=New Jersey, L=Princeton, O=Princeton University, OU=PNI, CN=rtcloud.princeton.edu
        Subject Public Key Info:
            Public Key Algorithm: rsaEncryption
                RSA Public-Key: (2048 bit)
                Modulus:
                    00:a6:08:c5:59:91:2f:e5:2e:ba:4e:26:9a:ca:87:
                    ab:0e:01:03:a5:ef:e2:5e:9b:1f:d3:c6:df:69:9c:
                    1b:e5:f8:98:29:73:b5:b4:1e:3c:a3:b2:e2:f9:3c:
                    72:17:e2:41:0b:47:3f:b1:e9:2b:24:c5:80:f6:e5:
                    49:4e:09:b4:09:06:64:b7:50:44:97:13:94:22:fd:
                    25:5d:0d:e7:ea:ea:f0:1f:0d:a9:b5:2e:a6:18:c9:
                    3d:37:60:9a:9b:9e:42:2e:08:ad:05:94:a3:e4:74:
                    e5:e4:d8:d3:5c:f1:ea:61:79:8f:3d:a7:06:07:3a:
                    09:08:e3:e0:53:93:9a:f3:11:27:91:8c:2b:96:58:
                    8d:b8:c9:27:a6:69:62:4b:f1:62:41:92:c5:2f:99:
                    1c:59:69:bb:5a:b6:03:0e:6b:ca:5b:04:3a:95:1c:
                    8a:e6:65:d8:c1:38:85:9b:a2:24:d5:ac:ac:86:56:
                    50:c5:fe:4c:2d:ed:04:3f:cb:0f:b1:d5:90:fc:45:
                    f7:28:52:ad:b1:07:93:bd:8d:75:74:51:a0:cb:45:
                    60:55:64:c4:2a:4d:4c:9e:50:f1:f2:9a:d3:8a:87:
                    8e:11:e8:2c:0b:99:e2:4e:20:c5:33:63:f2:ad:01:
                    fd:3b:8c:0b:f7:6a:ac:bc:bc:17:87:df:69:4d:96:
                    50:5b
                Exponent: 65537 (0x10001)
        X509v3 extensions:
            X509v3 Basic Constraints: 
                CA:TRUE
            X509v3 Subject Alternative Name: 
                DNS:princeton.edu, DNS:localhost, DNS:localhost, IP Address:127.0.0.1, IP Address:192.168.2.5
    Signature Algorithm: sha256WithRSAEncryption
         a2:49:42:fc:77:2b:af:54:fa:74:46:b2:20:5d:80:aa:f8:26:
         cb:a5:44:7d:7d:a7:37:12:e2:ed:02:11:80:b3:ff:ee:10:1b:
         f5:2f:18:43:5e:85:93:d1:b2:e7:5c:12:99:58:9e:e8:a4:6b:
         a8:27:4f:fb:ad:6a:e2:17:58:ba:87:e5:78:59:21:2b:43:b0:
         21:bb:4e:ea:2b:35:8b:41:26:ae:97:66:4c:7c:7d:11:30:84:
         78:66:dc:df:b3:c7:19:76:dc:d1:12:3b:98:98:87:bb:59:05:
         22:fd:5a:95:37:10:12:34:d3:ee:80:24:f4:68:e0:32:f0:95:
         07:95:8c:1e:38:a3:dc:e2:6a:8c:d5:38:f0:4a:d0:c4:20:50:
         f9:77:02:3a:ac:af:92:08:03:2b:31:22:bc:fe:e3:24:8b:84:
         f6:2c:e5:73:52:59:e5:5a:cc:f7:5a:0f:6d:53:b3:99:17:b9:
         91:c1:94:21:e9:77:58:80:8a:8a:74:e5:ee:65:e2:91:9d:40:
         91:26:00:f6:21:39:e8:64:a0:eb:c6:47:09:39:c9:19:70:93:
         61:e0:bd:64:d1:e8:0c:27:e3:16:74:04:cc:49:d9:63:4b:32:
         3c:c2:6d:0c:24:61:4d:d4:1d:2a:ba:2b:f3:1e:cb:6a:b0:91:
         7d:24:e0:a4
-----BEGIN CERTIFICATE-----
MIID0DCCArigAwIBAgICEAAwDQYJKoZIhvcNAQELBQAwgYMxCzAJBgNVBAYTAlVT
MRMwEQYDVQQIDApOZXcgSmVyc2V5MRIwEAYDVQQHDAlQcmluY2V0b24xHTAbBgNV
BAoMFFByaW5jZXRvbiBVbml2ZXJzaXR5MQwwCgYDVQQLDANQTkkxHjAcBgNVBAMM
FXJ0Y2xvdWQucHJpbmNldG9uLmVkdTAeFw0yMzAxMDExMjAwMDBaFw0yNDAxMDEx
MjAwMDBaMIGDMQswCQYDVQQGEwJVUzETMBEGA1UECAwKTmV3IEplcnNleTESMBAG
A1UEBwwJUHJpbmNldG9uMR0wGwYDVQQKDBRQcmluY2V0b24gVW5pdmVyc2l0eTEM
MAoGA1UECwwDUE5JMR4wHAYDVQQDDBVydGNsb3VkLnByaW5jZXRvbi5lZHUwggEi
MA0GCSqGSIb3DQEBAQUAA4IBDwAwggEKAoIBAQCmCMVZkS/lLrpOJprKh6sOAQOl
7+Jemx/Txt9pnBvl+Jgpc7W0HjyjsuL5PHIX4kELRz+x6SskxYD25UlOCbQJBmS3
UESXE5Qi/SVdDefq6vAfDam1LqYYyT03YJqbnkIuCK0FlKPkdOXk2NNc8epheY89
pwYHOgkI4+BTk5rzESeRjCuWWI24ySemaWJL8WJBksUvmRxZabtatgMOa8pbBDqV
HIrmZdjBOIWboiTVrKyGVlDF/kwt7QQ/yw+x1ZD8RfcoUq2xB5O9jXV0UaDLRWBV
ZMQqTUyeUPHymtOKh44R6CwLmeJOIMUzY/KtAf07jAv3aqy8vBeH32lNllBbAgMB
AAGjTDBKMAwGA1UdEwQFMAMBAf8wOgYDVR0RBDMwMYINcHJpbmNldG9uLmVkdYIJ
bG9jYWxob3N0gglsb2NhbGhvc3SHBH8AAAGHBMCoAgUwDQYJKoZIhvcNAQELBQAD
ggEBAKJJQvx3K69U+nRGsiBdgKr4JsulRH19pzcS4u0CEYCz/+4QG/UvGENehZPR
sudcEplYnuika6gnT/utauIXWLqH5XhZIStDsCG7TuorNYtBJq6XZkx8fREwhHhm
3N+zxxl23NESO5iYh7tZBSL9WpU3EBI00+6AJPRo4DLwlQeVjB44o9ziaozVOPBK
0MQgUPl3Ajqsr5IIAysxIrz+4ySLhPYs5XNSWeVazPdaD21Ts5kXuZHBlCHpd1iA
iop05e5l4pGdQJEmAPYhOehkoOvGRwk5yRlwk2HgvWTR6Awn4xZ0BMxJ2WNLMjzC
bQwkYU3UHSq6K/Mey2qwkX0k4KQ=
-----END CERTIFICATE-----
